target datalayout = "e-m:e-p270:32:32-p271:32:32-p272:64:64-i64:64-i128:128-f80:128-n8:16:32:64-S128"
target triple = "x86_64-pc-linux-gnu"

%struct.cmac_ctx_st = type { %struct.evp_cipher_ctx_st, [16 x i8], [16 x i8], [16 x i8], i32 }
%struct.evp_cipher_ctx_st = type { ptr, ptr, ptr, i32, i32, i32, [16 x i8], [16 x i8], [32 x i8], i32, i32, i32, i32, [32 x i8] }

; Function Attrs: nounwind uwtable
define hidden i32 @CMAC_Update(ptr noundef %0, ptr noundef %1, i64 noundef %2) #0 {
  %4 = alloca i32, align 4
  %5 = alloca ptr, align 8
  %6 = alloca ptr, align 8
  %7 = alloca i64, align 8
  %8 = alloca [16 x i8], align 16
  %9 = alloca i64, align 8
  %10 = alloca i32, align 4
  store ptr %0, ptr %5, align 8, !tbaa !17
  store ptr %1, ptr %6, align 8, !tbaa !6
  store i64 %2, ptr %7, align 8, !tbaa !11
  call void @llvm.lifetime.start.p0(i64 16, ptr %8) #7
  %11 = load ptr, ptr %5, align 8, !tbaa !17
  %12 = getelementptr inbounds nuw %struct.cmac_ctx_st, ptr %11, i32 0, i32 4
  %13 = load i32, ptr %12, align 8, !tbaa !22
  %14 = icmp ugt i32 %13, 0
  br i1 %14, label %15, label %67

15:                                               ; preds = %3
  call void @llvm.lifetime.start.p0(i64 8, ptr %9) #7
  %16 = load ptr, ptr %5, align 8, !tbaa !17
  %17 = getelementptr inbounds nuw %struct.cmac_ctx_st, ptr %16, i32 0, i32 4
  %18 = load i32, ptr %17, align 8, !tbaa !22
  %19 = sub i32 16, %18
  %20 = zext i32 %19 to i64
  store i64 %20, ptr %9, align 8, !tbaa !11
  %21 = load i64, ptr %7, align 8, !tbaa !11
  %22 = load i64, ptr %9, align 8, !tbaa !11
  %23 = icmp ult i64 %21, %22
  br i1 %23, label %24, label %26

24:                                               ; preds = %15
  %25 = load i64, ptr %7, align 8, !tbaa !11
  store i64 %25, ptr %9, align 8, !tbaa !11
  br label %26

26:                                               ; preds = %24, %15
  %27 = load ptr, ptr %5, align 8, !tbaa !17
  %28 = getelementptr inbounds nuw %struct.cmac_ctx_st, ptr %27, i32 0, i32 3
  %29 = getelementptr inbounds [16 x i8], ptr %28, i64 0, i64 0
  %30 = load ptr, ptr %5, align 8, !tbaa !17
  %31 = getelementptr inbounds nuw %struct.cmac_ctx_st, ptr %30, i32 0, i32 4
  %32 = load i32, ptr %31, align 8, !tbaa !22
  %33 = zext i32 %32 to i64
  %34 = getelementptr inbounds nuw i8, ptr %29, i64 %33
  %35 = load ptr, ptr %6, align 8, !tbaa !6
  %36 = load i64, ptr %9, align 8, !tbaa !11
  call void @llvm.memcpy.p0.p0.i64(ptr align 1 %34, ptr align 1 %35, i64 %36, i1 false)
  %37 = load i64, ptr %9, align 8, !tbaa !11
  %38 = load ptr, ptr %6, align 8, !tbaa !6
  %39 = getelementptr inbounds nuw i8, ptr %38, i64 %37
  store ptr %39, ptr %6, align 8, !tbaa !6
  %40 = load i64, ptr %9, align 8, !tbaa !11
  %41 = load i64, ptr %7, align 8, !tbaa !11
  %42 = sub i64 %41, %40
  store i64 %42, ptr %7, align 8, !tbaa !11
  %43 = load i64, ptr %9, align 8, !tbaa !11
  %44 = load ptr, ptr %5, align 8, !tbaa !17
  %45 = getelementptr inbounds nuw %struct.cmac_ctx_st, ptr %44, i32 0, i32 4
  %46 = load i32, ptr %45, align 8, !tbaa !22
  %47 = zext i32 %46 to i64
  %48 = add i64 %47, %43
  %49 = trunc i64 %48 to i32
  store i32 %49, ptr %45, align 8, !tbaa !22
  %50 = load i64, ptr %7, align 8, !tbaa !11
  %51 = icmp eq i64 %50, 0
  br i1 %51, label %52, label %53

52:                                               ; preds = %26
  store i32 1, ptr %4, align 4
  store i32 1, ptr %10, align 4
  br label %64

53:                                               ; preds = %26
  %54 = load ptr, ptr %5, align 8, !tbaa !17
  %55 = getelementptr inbounds nuw %struct.cmac_ctx_st, ptr %54, i32 0, i32 0
  %56 = getelementptr inbounds [16 x i8], ptr %8, i64 0, i64 0
  %57 = load ptr, ptr %5, align 8, !tbaa !17
  %58 = getelementptr inbounds nuw %struct.cmac_ctx_st, ptr %57, i32 0, i32 3
  %59 = getelementptr inbounds [16 x i8], ptr %58, i64 0, i64 0
  %60 = call i32 @EVP_Cipher(ptr noundef %55, ptr noundef %56, ptr noundef %59, i64 noundef 16)
  %61 = icmp ne i32 %60, 0
  br i1 %61, label %63, label %62

62:                                               ; preds = %53
  store i32 0, ptr %4, align 4
  store i32 1, ptr %10, align 4
  br label %64

63:                                               ; preds = %53
  store i32 0, ptr %10, align 4
  br label %64

64:                                               ; preds = %63, %62, %52
  call void @llvm.lifetime.end.p0(i64 8, ptr %9) #7
  %65 = load i32, ptr %10, align 4
  switch i32 %65, label %94 [
    i32 0, label %66
  ]

66:                                               ; preds = %64
  br label %67

67:                                               ; preds = %66, %3
  br label %68

68:                                               ; preds = %79, %67
  %69 = load i64, ptr %7, align 8, !tbaa !11
  %70 = icmp ugt i64 %69, 16
  br i1 %70, label %71, label %84

71:                                               ; preds = %68
  %72 = load ptr, ptr %5, align 8, !tbaa !17
  %73 = getelementptr inbounds nuw %struct.cmac_ctx_st, ptr %72, i32 0, i32 0
  %74 = getelementptr inbounds [16 x i8], ptr %8, i64 0, i64 0
  %75 = load ptr, ptr %6, align 8, !tbaa !6
  %76 = call i32 @EVP_Cipher(ptr noundef %73, ptr noundef %74, ptr noundef %75, i64 noundef 16)
  %77 = icmp ne i32 %76, 0
  br i1 %77, label %79, label %78

78:                                               ; preds = %71
  store i32 0, ptr %4, align 4
  store i32 1, ptr %10, align 4
  br label %94

79:                                               ; preds = %71
  %80 = load ptr, ptr %6, align 8, !tbaa !6
  %81 = getelementptr inbounds i8, ptr %80, i64 16
  store ptr %81, ptr %6, align 8, !tbaa !6
  %82 = load i64, ptr %7, align 8, !tbaa !11
  %83 = sub i64 %82, 16
  store i64 %83, ptr %7, align 8, !tbaa !11
  br label %68, !llvm.loop !25

84:                                               ; preds = %68
  %85 = load ptr, ptr %5, align 8, !tbaa !17
  %86 = getelementptr inbounds nuw %struct.cmac_ctx_st, ptr %85, i32 0, i32 3
  %87 = getelementptr inbounds [16 x i8], ptr %86, i64 0, i64 0
  %88 = load ptr, ptr %6, align 8, !tbaa !6
  %89 = load i64, ptr %7, align 8, !tbaa !11
  call void @llvm.memcpy.p0.p0.i64(ptr align 8 %87, ptr align 1 %88, i64 %89, i1 false)
  %90 = load i64, ptr %7, align 8, !tbaa !11
  %91 = trunc i64 %90 to i32
  %92 = load ptr, ptr %5, align 8, !tbaa !17
  %93 = getelementptr inbounds nuw %struct.cmac_ctx_st, ptr %92, i32 0, i32 4
  store i32 %91, ptr %93, align 8, !tbaa !22
  store i32 1, ptr %4, align 4
  store i32 1, ptr %10, align 4
  br label %94

94:                                               ; preds = %84, %78, %64
  call void @llvm.lifetime.end.p0(i64 16, ptr %8) #7
  %95 = load i32, ptr %4, align 4
  ret i32 %95
}