; Function Attrs: nounwind uwtable
define hidden range(i32 0, 2) i32 @CMAC_Update(ptr noundef %0, ptr noundef %1, i64 noundef %2) local_unnamed_addr #0 {
  %4 = alloca [16 x i8], align 16
  call void @llvm.lifetime.start.p0(i64 16, ptr nonnull %4) #8
  %5 = getelementptr inbounds nuw i8, ptr %0, i64 200
  %6 = load i32, ptr %5, align 8, !tbaa !6
  %.not = icmp eq i32 %6, 0
  br i1 %.not, label %21, label %7

7:                                                ; preds = %3
  %8 = sub i32 16, %6
  %9 = zext i32 %8 to i64
  %spec.select = tail call i64 @llvm.umin.i64(i64 %2, i64 %9)
  %10 = getelementptr inbounds nuw i8, ptr %0, i64 184
  %11 = zext i32 %6 to i64
  %12 = getelementptr inbounds nuw i8, ptr %10, i64 %11
  tail call void @llvm.memcpy.p0.p0.i64(ptr nonnull align 1 %12, ptr align 1 %1, i64 %spec.select, i1 false)
  %13 = sub i64 %2, %spec.select
  %14 = load i32, ptr %5, align 8, !tbaa !6
  %15 = trunc nuw i64 %spec.select to i32
  %16 = add i32 %14, %15
  store i32 %16, ptr %5, align 8, !tbaa !6
  %17 = icmp eq i64 %13, 0
  br i1 %17, label %.thread, label %18

18:                                               ; preds = %7
  %19 = getelementptr inbounds nuw i8, ptr %1, i64 %spec.select
  %20 = call i32 @EVP_Cipher(ptr noundef nonnull %0, ptr noundef nonnull %4, ptr noundef nonnull %10, i64 noundef 16) #8
  %.not38.not = icmp eq i32 %20, 0
  br i1 %.not38.not, label %.thread, label %21

21:                                               ; preds = %18, %3
  %.031 = phi ptr [ %19, %18 ], [ %1, %3 ]
  %.030 = phi i64 [ %13, %18 ], [ %2, %3 ]
  %22 = icmp ugt i64 %.030, 16
  br i1 %22, label %.lr.ph, label %._crit_edge

.lr.ph:                                           ; preds = %21, %24
  %.146 = phi i64 [ %26, %24 ], [ %.030, %21 ]
  %.13245 = phi ptr [ %25, %24 ], [ %.031, %21 ]
  %23 = call i32 @EVP_Cipher(ptr noundef %0, ptr noundef nonnull %4, ptr noundef %.13245, i64 noundef 16) #8
  %.not39 = icmp eq i32 %23, 0
  br i1 %.not39, label %.thread, label %24

24:                                               ; preds = %.lr.ph
  %25 = getelementptr inbounds nuw i8, ptr %.13245, i64 16
  %26 = add i64 %.146, -16
  %27 = icmp ugt i64 %26, 16
  br i1 %27, label %.lr.ph, label %._crit_edge, !llvm.loop !14

._crit_edge:                                      ; preds = %24, %21
  %.132.lcssa = phi ptr [ %.031, %21 ], [ %25, %24 ]
  %.1.lcssa = phi i64 [ %.030, %21 ], [ %26, %24 ]
  %28 = getelementptr inbounds nuw i8, ptr %0, i64 184
  call void @llvm.memcpy.p0.p0.i64(ptr nonnull align 8 %28, ptr align 1 %.132.lcssa, i64 %.1.lcssa, i1 false)
  %29 = trunc nuw nsw i64 %.1.lcssa to i32
  store i32 %29, ptr %5, align 8, !tbaa !6
  br label %.thread

.thread:                                          ; preds = %.lr.ph, %7, %18, %._crit_edge
  %.134 = phi i32 [ 1, %._crit_edge ], [ 0, %18 ], [ 1, %7 ], [ 0, %.lr.ph ]
  call void @llvm.lifetime.end.p0(i64 16, ptr nonnull %4) #8
  ret i32 %.134
}